target datalayout = "e-m:e-p270:32:32-p271:32:32-p272:64:64-i64:64-i128:128-f80:128-n8:16:32:64-S128"
target triple = "x86_64-pc-linux-gnu"

%struct._zend_executor_globals = type { %struct._zval_struct, %struct._zval_struct, [32 x ptr], ptr, ptr, %struct._zend_array, %struct._zend_array, ptr, i32, i32, ptr, ptr, ptr, ptr, ptr, ptr, i64, ptr, ptr, i32, i32, i64, i32, i32, i32, i8, i8, %struct.zend_atomic_bool_s, %struct.zend_atomic_bool_s, ptr, i64, ptr, ptr, %struct._zend_array, %struct._zend_array, i32, i8, %struct._zval_struct, %struct._zval_struct, %struct._zend_stack, %struct._zend_stack, %struct._zend_stack, ptr, i32, i32, i64, ptr, ptr, ptr, %struct._zend_objects_store, ptr, ptr, ptr, [3 x %struct._zend_op], ptr, i8, i8, i64, i32, i32, ptr, [16 x %struct._HashTableIterator], ptr, %union._zend_function, %struct._zend_op, %struct._zend_array, i64, %struct.zend_get_gc_buffer, ptr, ptr, ptr, i64, i8, i32, ptr, ptr, i64, %struct._zend_call_stack, i64, i64, [6 x ptr] }
%struct.zend_atomic_bool_s = type { i8 }
%struct._zval_struct = type { %union._zend_value, %union.anon.0, %union.anon.3 }
%union._zend_value = type { i64 }
%union.anon.0 = type { i32 }
%union.anon.3 = type { i32 }
%struct._zend_stack = type { i32, i32, i32, ptr }
%struct._zend_objects_store = type { ptr, i32, i32, i32 }
%struct._HashTableIterator = type { ptr, i32, i32 }
%union._zend_function = type { %struct._zend_op_array }
%struct._zend_op_array = type { i8, [3 x i8], i32, ptr, ptr, ptr, i32, i32, ptr, ptr, ptr, ptr, i32, i32, i32, i32, ptr, ptr, ptr, ptr, ptr, i32, i32, ptr, ptr, ptr, i32, i32, i32, i32, ptr, ptr, [6 x ptr] }
%struct._zend_op = type { ptr, %union._znode_op, %union._znode_op, %union._znode_op, i32, i32, i8, i8, i8, i8 }
%union._znode_op = type { i32 }
%struct._zend_array = type { %struct._zend_refcounted_h, %union.anon.4, i32, %union.anon.6, i32, i32, i32, i32, i64, ptr }
%struct._zend_refcounted_h = type { i32, %union.anon }
%union.anon = type { i32 }
%union.anon.4 = type { i32 }
%union.anon.6 = type { ptr }
%struct.zend_get_gc_buffer = type { ptr, ptr, ptr }
%struct._zend_call_stack = type { ptr, i64 }
%struct._xmlreader_object = type { ptr, ptr, ptr, ptr, %struct._zend_object }
%struct._zend_object = type { %struct._zend_refcounted_h, i32, ptr, ptr, ptr, [1 x %struct._zval_struct] }
%struct._zend_execute_data = type { ptr, ptr, ptr, ptr, %struct._zval_struct, ptr, ptr, ptr, ptr }

@executor_globals = external global %struct._zend_executor_globals, align 8
@.str.9 = private unnamed_addr constant [16 x i8] c"cannot be empty\00", align 1
@.str.15 = private unnamed_addr constant [6 x i8] c"p|s!l\00", align 1
@.str.16 = private unnamed_addr constant [36 x i8] c"Encoding must not contain NUL bytes\00", align 1
@.str.17 = private unnamed_addr constant [27 x i8] c"Unable to open source data\00", align 1
@xmlreader_class_entry = hidden global ptr null, align 8

; Function Attrs: nounwind uwtable
define internal void @xmlreader_free_resources(ptr noundef %0) #0 {
  %2 = alloca ptr, align 8
  store ptr %0, ptr %2, align 8
  %3 = load ptr, ptr %2, align 8
  %4 = getelementptr inbounds %struct._xmlreader_object, ptr %3, i32 0, i32 1
  %5 = load ptr, ptr %4, align 8
  %6 = icmp ne ptr %5, null
  br i1 %6, label %7, label %13

7:                                                ; preds = %1
  %8 = load ptr, ptr %2, align 8
  %9 = getelementptr inbounds %struct._xmlreader_object, ptr %8, i32 0, i32 1
  %10 = load ptr, ptr %9, align 8
  call void @xmlFreeParserInputBuffer(ptr noundef %10)
  %11 = load ptr, ptr %2, align 8
  %12 = getelementptr inbounds %struct._xmlreader_object, ptr %11, i32 0, i32 1
  store ptr null, ptr %12, align 8
  br label %13

13:                                               ; preds = %7, %1
  %14 = load ptr, ptr %2, align 8
  %15 = getelementptr inbounds %struct._xmlreader_object, ptr %14, i32 0, i32 0
  %16 = load ptr, ptr %15, align 8
  %17 = icmp ne ptr %16, null
  br i1 %17, label %18, label %24

18:                                               ; preds = %13
  %19 = load ptr, ptr %2, align 8
  %20 = getelementptr inbounds %struct._xmlreader_object, ptr %19, i32 0, i32 0
  %21 = load ptr, ptr %20, align 8
  call void @xmlFreeTextReader(ptr noundef %21)
  %22 = load ptr, ptr %2, align 8
  %23 = getelementptr inbounds %struct._xmlreader_object, ptr %22, i32 0, i32 0
  store ptr null, ptr %23, align 8
  br label %24

24:                                               ; preds = %18, %13
  %25 = load ptr, ptr %2, align 8
  %26 = getelementptr inbounds %struct._xmlreader_object, ptr %25, i32 0, i32 2
  %27 = load ptr, ptr %26, align 8
  %28 = icmp ne ptr %27, null
  br i1 %28, label %29, label %35

29:                                               ; preds = %24
  %30 = load ptr, ptr %2, align 8
  %31 = getelementptr inbounds %struct._xmlreader_object, ptr %30, i32 0, i32 2
  %32 = load ptr, ptr %31, align 8
  call void @xmlRelaxNGFree(ptr noundef %32)
  %33 = load ptr, ptr %2, align 8
  %34 = getelementptr inbounds %struct._xmlreader_object, ptr %33, i32 0, i32 2
  store ptr null, ptr %34, align 8
  br label %35

35:                                               ; preds = %29, %24
  ret void
}

; Function Attrs: nounwind uwtable
define internal ptr @php_xmlreader_fetch_object(ptr noundef %0) #0 {
  %2 = alloca ptr, align 8
  store ptr %0, ptr %2, align 8
  %3 = load ptr, ptr %2, align 8
  %4 = getelementptr inbounds i8, ptr %3, i64 -32
  ret ptr %4
}

; Function Attrs: nounwind uwtable
define hidden void @zim_XMLReader_open(ptr noundef %0, ptr noundef %1) #0 {
  %3 = alloca ptr, align 8
  %4 = alloca i64, align 8
  %5 = alloca ptr, align 8
  %6 = alloca ptr, align 8
  %7 = alloca ptr, align 8
  %8 = alloca ptr, align 8
  %9 = alloca i64, align 8
  %10 = alloca i64, align 8
  %11 = alloca i64, align 8
  %12 = alloca ptr, align 8
  %13 = alloca ptr, align 8
  %14 = alloca ptr, align 8
  %15 = alloca ptr, align 8
  %16 = alloca [4097 x i8], align 16
  %17 = alloca ptr, align 8
  %18 = alloca i32, align 4
  %19 = alloca i32, align 4
  %20 = alloca i32, align 4
  %21 = alloca i32, align 4
  %22 = alloca i32, align 4
  %23 = alloca i32, align 4
  store ptr %0, ptr %6, align 8
  store ptr %1, ptr %7, align 8
  store i64 0, ptr %9, align 8
  store i64 0, ptr %10, align 8
  store i64 0, ptr %11, align 8
  store ptr null, ptr %12, align 8
  store ptr null, ptr %14, align 8
  store ptr null, ptr %15, align 8
  store ptr null, ptr %17, align 8
  %24 = load ptr, ptr %6, align 8
  %25 = getelementptr inbounds %struct._zend_execute_data, ptr %24, i32 0, i32 4
  %26 = getelementptr inbounds %struct._zval_struct, ptr %25, i32 0, i32 2
  %27 = load i32, ptr %26, align 4
  %28 = call i32 (i32, ptr, ...) @zend_parse_parameters(i32 noundef %27, ptr noundef @.str.15, ptr noundef %13, ptr noundef %9, ptr noundef %15, ptr noundef %10, ptr noundef %11)
  %29 = icmp eq i32 %28, -1
  br i1 %29, label %30, label %35

30:                                               ; preds = %2
  br label %31

31:                                               ; preds = %30
  %32 = load ptr, ptr getelementptr inbounds (%struct._zend_executor_globals, ptr @executor_globals, i32 0, i32 50), align 8
  %33 = icmp ne ptr %32, null
  call void @llvm.assume(i1 %33)
  br label %149

34:                                               ; No predecessors!
  br label %35

35:                                               ; preds = %34, %2
  %36 = load ptr, ptr %6, align 8
  %37 = getelementptr inbounds %struct._zend_execute_data, ptr %36, i32 0, i32 4
  store ptr %37, ptr %5, align 8
  %38 = load ptr, ptr %5, align 8
  %39 = getelementptr inbounds %struct._zval_struct, ptr %38, i32 0, i32 1
  %40 = load i8, ptr %39, align 8
  %41 = zext i8 %40 to i32
  %42 = icmp eq i32 %41, 8
  br i1 %42, label %43, label %46

43:                                               ; preds = %35
  %44 = load ptr, ptr %6, align 8
  %45 = getelementptr inbounds %struct._zend_execute_data, ptr %44, i32 0, i32 4
  br label %47

46:                                               ; preds = %35
  br label %47

47:                                               ; preds = %46, %43
  %48 = phi ptr [ %45, %43 ], [ null, %46 ]
  store ptr %48, ptr %8, align 8
  %49 = load ptr, ptr %8, align 8
  %50 = icmp ne ptr %49, null
  br i1 %50, label %51, label %57

51:                                               ; preds = %47
  %52 = load ptr, ptr %8, align 8
  %53 = getelementptr inbounds %struct._zval_struct, ptr %52, i32 0, i32 0
  %54 = load ptr, ptr %53, align 8
  %55 = call ptr @php_xmlreader_fetch_object(ptr noundef %54)
  store ptr %55, ptr %12, align 8
  %56 = load ptr, ptr %12, align 8
  call void @xmlreader_free_resources(ptr noundef %56)
  br label %57

57:                                               ; preds = %51, %47
  %58 = load i64, ptr %9, align 8
  %59 = icmp ne i64 %58, 0
  br i1 %59, label %65, label %60

60:                                               ; preds = %57
  call void (i32, ptr, ...) @zend_argument_value_error(i32 noundef 1, ptr noundef @.str.9)
  br label %61

61:                                               ; preds = %60
  %62 = load ptr, ptr getelementptr inbounds (%struct._zend_executor_globals, ptr @executor_globals, i32 0, i32 50), align 8
  %63 = icmp ne ptr %62, null
  call void @llvm.assume(i1 %63)
  br label %149

64:                                               ; No predecessors!
  br label %65

65:                                               ; preds = %64, %57
  %66 = load ptr, ptr %15, align 8
  %67 = icmp ne ptr %66, null
  br i1 %67, label %68, label %82

68:                                               ; preds = %65
  %69 = load ptr, ptr %15, align 8
  %70 = load i64, ptr %10, align 8
  store ptr %69, ptr %3, align 8
  store i64 %70, ptr %4, align 8
  %71 = load i64, ptr %4, align 8
  %72 = load ptr, ptr %3, align 8
  %73 = call i64 @strlen(ptr noundef %72) #10
  %74 = icmp ne i64 %71, %73
  br i1 %74, label %75, label %82

75:                                               ; preds = %68
  call void (ptr, i32, ptr, ...) @php_error_docref(ptr noundef null, i32 noundef 2, ptr noundef @.str.16)
  br label %76

76:                                               ; preds = %75
  br label %77

77:                                               ; preds = %76
  %78 = load ptr, ptr %7, align 8
  %79 = getelementptr inbounds %struct._zval_struct, ptr %78, i32 0, i32 1
  store i32 2, ptr %79, align 8
  br label %80

80:                                               ; preds = %77
  br label %149

81:                                               ; No predecessors!
  br label %82

82:                                               ; preds = %81, %68, %65
  %83 = load ptr, ptr %13, align 8
  %84 = getelementptr inbounds [4097 x i8], ptr %16, i64 0, i64 0
  %85 = call ptr @_xmlreader_get_valid_file_path(ptr noundef %83, ptr noundef %84, i32 noundef 4096)
  store ptr %85, ptr %14, align 8
  %86 = load ptr, ptr %14, align 8
  %87 = icmp ne ptr %86, null
  br i1 %87, label %88, label %116

88:                                               ; preds = %82
  %89 = call ptr @__xmlLoadExtDtdDefaultValue()
  %90 = load i32, ptr %89, align 4
  store i32 %90, ptr %18, align 4
  %91 = call ptr @__xmlLoadExtDtdDefaultValue()
  store i32 0, ptr %91, align 4
  %92 = call ptr @__xmlDoValidityCheckingDefaultValue()
  %93 = load i32, ptr %92, align 4
  store i32 %93, ptr %19, align 4
  %94 = call ptr @__xmlDoValidityCheckingDefaultValue()
  store i32 0, ptr %94, align 4
  %95 = call i32 @xmlPedanticParserDefault(i32 noundef 0)
  store i32 %95, ptr %20, align 4
  %96 = call i32 @xmlSubstituteEntitiesDefault(i32 noundef 0)
  store i32 %96, ptr %21, align 4
  %97 = call i32 @xmlLineNumbersDefault(i32 noundef 0)
  store i32 %97, ptr %22, align 4
  %98 = call i32 @xmlKeepBlanksDefault(i32 noundef 1)
  store i32 %98, ptr %23, align 4
  %99 = load ptr, ptr %14, align 8
  %100 = load ptr, ptr %15, align 8
  %101 = load i64, ptr %11, align 8
  %102 = trunc i64 %101 to i32
  %103 = call ptr @xmlReaderForFile(ptr noundef %99, ptr noundef %100, i32 noundef %102)
  store ptr %103, ptr %17, align 8
  %104 = load i32, ptr %18, align 4
  %105 = call ptr @__xmlLoadExtDtdDefaultValue()
  store i32 %104, ptr %105, align 4
  %106 = load i32, ptr %19, align 4
  %107 = call ptr @__xmlDoValidityCheckingDefaultValue()
  store i32 %106, ptr %107, align 4
  %108 = load i32, ptr %20, align 4
  %109 = call i32 @xmlPedanticParserDefault(i32 noundef %108)
  %110 = load i32, ptr %21, align 4
  %111 = call i32 @xmlSubstituteEntitiesDefault(i32 noundef %110)
  %112 = load i32, ptr %22, align 4
  %113 = call i32 @xmlLineNumbersDefault(i32 noundef %112)
  %114 = load i32, ptr %23, align 4
  %115 = call i32 @xmlKeepBlanksDefault(i32 noundef %114)
  br label %116

116:                                              ; preds = %88, %82
  %117 = load ptr, ptr %17, align 8
  %118 = icmp eq ptr %117, null
  br i1 %118, label %119, label %126

119:                                              ; preds = %116
  call void (ptr, i32, ptr, ...) @php_error_docref(ptr noundef null, i32 noundef 2, ptr noundef @.str.17)
  br label %120

120:                                              ; preds = %119
  br label %121

121:                                              ; preds = %120
  %122 = load ptr, ptr %7, align 8
  %123 = getelementptr inbounds %struct._zval_struct, ptr %122, i32 0, i32 1
  store i32 2, ptr %123, align 8
  br label %124

124:                                              ; preds = %121
  br label %149

125:                                              ; No predecessors!
  br label %126

126:                                              ; preds = %125, %116
  %127 = load ptr, ptr %8, align 8
  %128 = icmp eq ptr %127, null
  br i1 %128, label %129, label %140

129:                                              ; preds = %126
  %130 = load ptr, ptr %7, align 8
  %131 = load ptr, ptr @xmlreader_class_entry, align 8
  %132 = call i32 @object_init_ex(ptr noundef %130, ptr noundef %131)
  %133 = load ptr, ptr %7, align 8
  %134 = getelementptr inbounds %struct._zval_struct, ptr %133, i32 0, i32 0
  %135 = load ptr, ptr %134, align 8
  %136 = call ptr @php_xmlreader_fetch_object(ptr noundef %135)
  store ptr %136, ptr %12, align 8
  %137 = load ptr, ptr %17, align 8
  %138 = load ptr, ptr %12, align 8
  %139 = getelementptr inbounds %struct._xmlreader_object, ptr %138, i32 0, i32 0
  store ptr %137, ptr %139, align 8
  br label %149

140:                                              ; preds = %126
  %141 = load ptr, ptr %17, align 8
  %142 = load ptr, ptr %12, align 8
  %143 = getelementptr inbounds %struct._xmlreader_object, ptr %142, i32 0, i32 0
  store ptr %141, ptr %143, align 8
  br label %144

144:                                              ; preds = %140
  br label %145

145:                                              ; preds = %144
  %146 = load ptr, ptr %7, align 8
  %147 = getelementptr inbounds %struct._zval_struct, ptr %146, i32 0, i32 1
  store i32 3, ptr %147, align 8
  br label %148

148:                                              ; preds = %145
  br label %149

149:                                              ; preds = %148, %129, %124, %80, %61, %31
  ret void
}