; Function Attrs: nounwind uwtable
define hidden void @zim_XMLReader_open(ptr nocapture noundef readonly %0, ptr noundef %1) #0 {
  %3 = alloca i64, align 8
  %4 = alloca i64, align 8
  %5 = alloca i64, align 8
  %6 = alloca ptr, align 8
  %7 = alloca ptr, align 8
  %8 = alloca [4097 x i8], align 16
  store i64 0, ptr %3, align 8
  store i64 0, ptr %4, align 8
  store i64 0, ptr %5, align 8
  store ptr null, ptr %7, align 8
  %9 = getelementptr inbounds i8, ptr %0, i64 44
  %10 = load i32, ptr %9, align 4
  %11 = call i32 (i32, ptr, ...) @zend_parse_parameters(i32 noundef %10, ptr noundef nonnull @.str.15, ptr noundef nonnull %6, ptr noundef nonnull %3, ptr noundef nonnull %7, ptr noundef nonnull %4, ptr noundef nonnull %5) #11
  %12 = icmp eq i32 %11, -1
  br i1 %12, label %13, label %16

13:                                               ; preds = %2
  %14 = load ptr, ptr getelementptr inbounds (%struct._zend_executor_globals, ptr @executor_globals, i64 0, i32 50), align 8
  %15 = icmp ne ptr %14, null
  call void @llvm.assume(i1 %15)
  br label %78

16:                                               ; preds = %2
  %17 = getelementptr inbounds i8, ptr %0, i64 40
  %18 = load i8, ptr %17, align 8
  %.not33 = icmp eq i8 %18, 8
  br i1 %.not33, label %19, label %xmlreader_free_resources.exit

19:                                               ; preds = %16
  %20 = getelementptr inbounds i8, ptr %0, i64 32
  %21 = load ptr, ptr %20, align 8
  %22 = getelementptr inbounds i8, ptr %21, i64 -32
  %23 = getelementptr inbounds i8, ptr %21, i64 -24
  %24 = load ptr, ptr %23, align 8
  %.not.i = icmp eq ptr %24, null
  br i1 %.not.i, label %26, label %25

25:                                               ; preds = %19
  call void @xmlFreeParserInputBuffer(ptr noundef nonnull %24) #11
  store ptr null, ptr %23, align 8
  br label %26

26:                                               ; preds = %25, %19
  %27 = load ptr, ptr %22, align 8
  %.not11.i = icmp eq ptr %27, null
  br i1 %.not11.i, label %29, label %28

28:                                               ; preds = %26
  call void @xmlFreeTextReader(ptr noundef nonnull %27) #11
  store ptr null, ptr %22, align 8
  br label %29

29:                                               ; preds = %28, %26
  %30 = getelementptr inbounds i8, ptr %21, i64 -16
  %31 = load ptr, ptr %30, align 8
  %.not12.i = icmp eq ptr %31, null
  br i1 %.not12.i, label %xmlreader_free_resources.exit, label %32

32:                                               ; preds = %29
  call void @xmlRelaxNGFree(ptr noundef nonnull %31) #11
  store ptr null, ptr %30, align 8
  br label %xmlreader_free_resources.exit

xmlreader_free_resources.exit:                    ; preds = %32, %29, %16
  %.0 = phi ptr [ null, %16 ], [ %22, %29 ], [ %22, %32 ]
  %33 = load i64, ptr %3, align 8
  %.not = icmp eq i64 %33, 0
  br i1 %.not, label %34, label %37

34:                                               ; preds = %xmlreader_free_resources.exit
  call void (i32, ptr, ...) @zend_argument_value_error(i32 noundef 1, ptr noundef nonnull @.str.9) #11
  %35 = load ptr, ptr getelementptr inbounds (%struct._zend_executor_globals, ptr @executor_globals, i64 0, i32 50), align 8
  %36 = icmp ne ptr %35, null
  call void @llvm.assume(i1 %36)
  br label %78

37:                                               ; preds = %xmlreader_free_resources.exit
  %38 = load ptr, ptr %7, align 8
  %.not30 = icmp eq ptr %38, null
  br i1 %.not30, label %44, label %39

39:                                               ; preds = %37
  %40 = load i64, ptr %4, align 8
  %41 = call i64 @strlen(ptr noundef nonnull dereferenceable(1) %38) #12
  %.not31 = icmp eq i64 %40, %41
  br i1 %.not31, label %44, label %42

42:                                               ; preds = %39
  call void (ptr, i32, ptr, ...) @php_error_docref(ptr noundef null, i32 noundef 2, ptr noundef nonnull @.str.16) #11
  %43 = getelementptr inbounds i8, ptr %1, i64 8
  store i32 2, ptr %43, align 8
  br label %78

44:                                               ; preds = %39, %37
  %45 = load ptr, ptr %6, align 8
  %46 = call ptr @_xmlreader_get_valid_file_path(ptr noundef %45, ptr noundef nonnull %8, i32 poison)
  %.not32 = icmp eq ptr %46, null
  br i1 %.not32, label %.thread, label %47

47:                                               ; preds = %44
  %48 = call ptr @__xmlLoadExtDtdDefaultValue() #11
  %49 = load i32, ptr %48, align 4
  %50 = call ptr @__xmlLoadExtDtdDefaultValue() #11
  store i32 0, ptr %50, align 4
  %51 = call ptr @__xmlDoValidityCheckingDefaultValue() #11
  %52 = load i32, ptr %51, align 4
  %53 = call ptr @__xmlDoValidityCheckingDefaultValue() #11
  store i32 0, ptr %53, align 4
  %54 = call i32 @xmlPedanticParserDefault(i32 noundef 0) #11
  %55 = call i32 @xmlSubstituteEntitiesDefault(i32 noundef 0) #11
  %56 = call i32 @xmlLineNumbersDefault(i32 noundef 0) #11
  %57 = call i32 @xmlKeepBlanksDefault(i32 noundef 1) #11
  %58 = load ptr, ptr %7, align 8
  %59 = load i64, ptr %5, align 8
  %60 = trunc i64 %59 to i32
  %61 = call ptr @xmlReaderForFile(ptr noundef nonnull %46, ptr noundef %58, i32 noundef %60) #11
  %62 = call ptr @__xmlLoadExtDtdDefaultValue() #11
  store i32 %49, ptr %62, align 4
  %63 = call ptr @__xmlDoValidityCheckingDefaultValue() #11
  store i32 %52, ptr %63, align 4
  %64 = call i32 @xmlPedanticParserDefault(i32 noundef %54) #11
  %65 = call i32 @xmlSubstituteEntitiesDefault(i32 noundef %55) #11
  %66 = call i32 @xmlLineNumbersDefault(i32 noundef %56) #11
  %67 = call i32 @xmlKeepBlanksDefault(i32 noundef %57) #11
  %68 = icmp eq ptr %61, null
  br i1 %68, label %.thread, label %70

.thread:                                          ; preds = %44, %47
  call void (ptr, i32, ptr, ...) @php_error_docref(ptr noundef null, i32 noundef 2, ptr noundef nonnull @.str.17) #11
  %69 = getelementptr inbounds i8, ptr %1, i64 8
  store i32 2, ptr %69, align 8
  br label %78

70:                                               ; preds = %47
  br i1 %.not33, label %76, label %71

71:                                               ; preds = %70
  %72 = load ptr, ptr @xmlreader_class_entry, align 8
  %73 = call i32 @object_init_ex(ptr noundef %1, ptr noundef %72) #11
  %74 = load ptr, ptr %1, align 8
  %75 = getelementptr inbounds i8, ptr %74, i64 -32
  store ptr %61, ptr %75, align 8
  br label %78

76:                                               ; preds = %70
  store ptr %61, ptr %.0, align 8
  %77 = getelementptr inbounds i8, ptr %1, i64 8
  store i32 3, ptr %77, align 8
  br label %78

78:                                               ; preds = %76, %71, %.thread, %42, %34, %13
  ret void
}